target datalayout = "e-m:e-p270:32:32-p271:32:32-p272:64:64-i64:64-i128:128-f80:128-n8:16:32:64-S128"
target triple = "x86_64-pc-linux-gnu"

%class.FakeRttiSupport = type <{ i64, i32, [4 x i8] }>
%class.CardTableBarrierSet = type { %class.ModRefBarrierSet, i8, ptr }
%class.ModRefBarrierSet = type { %class.BarrierSet }
%class.BarrierSet = type { ptr, %class.FakeRttiSupport, ptr, ptr, ptr, ptr, ptr }

@_ZTV28CardTableBarrierSetAssembler = external unnamed_addr constant { [20 x ptr] }, align 8
@_ZTV25ModRefBarrierSetAssembler = external unnamed_addr constant { [20 x ptr] }, align 8
@_ZTV19BarrierSetAssembler = external unnamed_addr constant { [17 x ptr] }, align 8
@_ZTV21CardTableBarrierSetC1 = external unnamed_addr constant { [18 x ptr] }, align 8
@_ZTV18ModRefBarrierSetC1 = external unnamed_addr constant { [18 x ptr] }, align 8
@_ZTV12BarrierSetC1 = external unnamed_addr constant { [16 x ptr] }, align 8
@_ZTV21CardTableBarrierSetC2 = external unnamed_addr constant { [48 x ptr] }, align 8
@_ZTV18ModRefBarrierSetC2 = external unnamed_addr constant { [48 x ptr] }, align 8
@_ZTV12BarrierSetC2 = external unnamed_addr constant { [46 x ptr] }, align 8

; Function Attrs: mustprogress nounwind uwtable
define linkonce_odr hidden void @_ZN12BarrierSetC2C2Ev(ptr noundef nonnull align 8 dereferenceable(8) %0) unnamed_addr #1 comdat align 2 {
  %2 = alloca ptr, align 8
  store ptr %0, ptr %2, align 8
  %3 = load ptr, ptr %2, align 8
  store ptr getelementptr inbounds inrange(-16, 352) ({ [46 x ptr] }, ptr @_ZTV12BarrierSetC2, i32 0, i32 0, i32 2), ptr %3, align 8
  ret void
}

; Function Attrs: mustprogress nounwind uwtable
define linkonce_odr hidden void @_ZN12BarrierSetC1C2Ev(ptr noundef nonnull align 8 dereferenceable(8) %0) unnamed_addr #1 comdat align 2 {
  %2 = alloca ptr, align 8
  store ptr %0, ptr %2, align 8
  %3 = load ptr, ptr %2, align 8
  store ptr getelementptr inbounds inrange(-16, 112) ({ [16 x ptr] }, ptr @_ZTV12BarrierSetC1, i32 0, i32 0, i32 2), ptr %3, align 8
  ret void
}

; Function Attrs: mustprogress nounwind uwtable
define linkonce_odr hidden void @_ZN19BarrierSetAssemblerC2Ev(ptr noundef nonnull align 8 dereferenceable(8) %0) unnamed_addr #1 comdat align 2 {
  %2 = alloca ptr, align 8
  store ptr %0, ptr %2, align 8
  %3 = load ptr, ptr %2, align 8
  store ptr getelementptr inbounds inrange(-16, 120) ({ [17 x ptr] }, ptr @_ZTV19BarrierSetAssembler, i32 0, i32 0, i32 2), ptr %3, align 8
  ret void
}

; Function Attrs: mustprogress nounwind uwtable
define linkonce_odr hidden void @_ZN15FakeRttiSupportI10BarrierSetNS0_4NameEEC2ES1_m(ptr noundef nonnull align 8 dereferenceable(12) %0, i32 noundef %1, i64 noundef %2) unnamed_addr #1 comdat align 2 {
  %4 = alloca ptr, align 8
  %5 = alloca i32, align 4
  %6 = alloca i64, align 8
  store ptr %0, ptr %4, align 8
  store i32 %1, ptr %5, align 4
  store i64 %2, ptr %6, align 8
  %7 = load ptr, ptr %4, align 8
  %8 = getelementptr inbounds %class.FakeRttiSupport, ptr %7, i32 0, i32 0
  %9 = load i64, ptr %6, align 8
  store i64 %9, ptr %8, align 8
  %10 = getelementptr inbounds %class.FakeRttiSupport, ptr %7, i32 0, i32 1
  %11 = load i32, ptr %5, align 4
  %12 = call noundef i32 @_ZN15FakeRttiSupportI10BarrierSetNS0_4NameEE12validate_tagES1_(i32 noundef %11)
  store i32 %12, ptr %10, align 8
  ret void
}

; Function Attrs: mustprogress nounwind uwtable
define linkonce_odr hidden noundef i32 @_ZN15FakeRttiSupportI10BarrierSetNS0_4NameEE12validate_tagES1_(i32 noundef %0) #1 comdat align 2 {
  %2 = alloca i32, align 4
  store i32 %0, ptr %2, align 4
  %3 = load i32, ptr %2, align 4
  ret i32 %3
}

; Function Attrs: mustprogress nounwind uwtable
define linkonce_odr hidden void @_ZN18ModRefBarrierSetC2C2Ev(ptr noundef nonnull align 8 dereferenceable(8) %0) unnamed_addr #1 comdat align 2 {
  %2 = alloca ptr, align 8
  store ptr %0, ptr %2, align 8
  %3 = load ptr, ptr %2, align 8
  call void @_ZN12BarrierSetC2C2Ev(ptr noundef nonnull align 8 dereferenceable(8) %3) #5
  store ptr getelementptr inbounds inrange(-16, 368) ({ [48 x ptr] }, ptr @_ZTV18ModRefBarrierSetC2, i32 0, i32 0, i32 2), ptr %3, align 8
  ret void
}

; Function Attrs: mustprogress nounwind uwtable
define linkonce_odr hidden void @_ZN18ModRefBarrierSetC1C2Ev(ptr noundef nonnull align 8 dereferenceable(8) %0) unnamed_addr #1 comdat align 2 {
  %2 = alloca ptr, align 8
  store ptr %0, ptr %2, align 8
  %3 = load ptr, ptr %2, align 8
  call void @_ZN12BarrierSetC1C2Ev(ptr noundef nonnull align 8 dereferenceable(8) %3) #5
  store ptr getelementptr inbounds inrange(-16, 128) ({ [18 x ptr] }, ptr @_ZTV18ModRefBarrierSetC1, i32 0, i32 0, i32 2), ptr %3, align 8
  ret void
}

; Function Attrs: mustprogress nounwind uwtable
define linkonce_odr hidden void @_ZN25ModRefBarrierSetAssemblerC2Ev(ptr noundef nonnull align 8 dereferenceable(8) %0) unnamed_addr #1 comdat align 2 {
  %2 = alloca ptr, align 8
  store ptr %0, ptr %2, align 8
  %3 = load ptr, ptr %2, align 8
  call void @_ZN19BarrierSetAssemblerC2Ev(ptr noundef nonnull align 8 dereferenceable(8) %3) #5
  store ptr getelementptr inbounds inrange(-16, 144) ({ [20 x ptr] }, ptr @_ZTV25ModRefBarrierSetAssembler, i32 0, i32 0, i32 2), ptr %3, align 8
  ret void
}

; Function Attrs: mustprogress nounwind uwtable
define linkonce_odr hidden { i64, i32 } @_ZNK15FakeRttiSupportI10BarrierSetNS0_4NameEE7add_tagES1_(ptr noundef nonnull align 8 dereferenceable(12) %0, i32 noundef %1) #1 comdat align 2 {
  %3 = alloca %class.FakeRttiSupport, align 8
  %4 = alloca ptr, align 8
  %5 = alloca i32, align 4
  %6 = alloca i64, align 8
  store ptr %0, ptr %4, align 8
  store i32 %1, ptr %5, align 4
  %7 = load ptr, ptr %4, align 8
  %8 = load i32, ptr %5, align 4
  %9 = call noundef i64 @_ZN15FakeRttiSupportI10BarrierSetNS0_4NameEE7tag_bitES1_(i32 noundef %8)
  store i64 %9, ptr %6, align 8
  %10 = getelementptr inbounds %class.FakeRttiSupport, ptr %7, i32 0, i32 1
  %11 = load i32, ptr %10, align 8
  %12 = getelementptr inbounds %class.FakeRttiSupport, ptr %7, i32 0, i32 0
  %13 = load i64, ptr %12, align 8
  %14 = load i64, ptr %6, align 8
  %15 = or i64 %13, %14
  call void @_ZN15FakeRttiSupportI10BarrierSetNS0_4NameEEC2ES1_m(ptr noundef nonnull align 8 dereferenceable(12) %3, i32 noundef %11, i64 noundef %15)
  %16 = load { i64, i32 }, ptr %3, align 8
  ret { i64, i32 } %16
}

; Function Attrs: mustprogress nounwind uwtable
define linkonce_odr hidden noundef i64 @_ZN15FakeRttiSupportI10BarrierSetNS0_4NameEE7tag_bitES1_(i32 noundef %0) #1 comdat align 2 {
  %2 = alloca i32, align 4
  store i32 %0, ptr %2, align 4
  %3 = load i32, ptr %2, align 4
  %4 = call noundef i32 @_ZN15FakeRttiSupportI10BarrierSetNS0_4NameEE12validate_tagES1_(i32 noundef %3)
  %5 = zext i32 %4 to i64
  %6 = shl i64 1, %5
  ret i64 %6
}

; Function Attrs: mustprogress nounwind uwtable
define linkonce_odr hidden void @_ZN21CardTableBarrierSetC2C2Ev(ptr noundef nonnull align 8 dereferenceable(8) %0) unnamed_addr #1 comdat align 2 {
  %2 = alloca ptr, align 8
  store ptr %0, ptr %2, align 8
  %3 = load ptr, ptr %2, align 8
  call void @_ZN18ModRefBarrierSetC2C2Ev(ptr noundef nonnull align 8 dereferenceable(8) %3) #5
  store ptr getelementptr inbounds inrange(-16, 368) ({ [48 x ptr] }, ptr @_ZTV21CardTableBarrierSetC2, i32 0, i32 0, i32 2), ptr %3, align 8
  ret void
}

; Function Attrs: mustprogress nounwind uwtable
define linkonce_odr hidden void @_ZN21CardTableBarrierSetC1C2Ev(ptr noundef nonnull align 8 dereferenceable(8) %0) unnamed_addr #1 comdat align 2 {
  %2 = alloca ptr, align 8
  store ptr %0, ptr %2, align 8
  %3 = load ptr, ptr %2, align 8
  call void @_ZN18ModRefBarrierSetC1C2Ev(ptr noundef nonnull align 8 dereferenceable(8) %3) #5
  store ptr getelementptr inbounds inrange(-16, 128) ({ [18 x ptr] }, ptr @_ZTV21CardTableBarrierSetC1, i32 0, i32 0, i32 2), ptr %3, align 8
  ret void
}

; Function Attrs: mustprogress nounwind uwtable
define linkonce_odr hidden void @_ZN28CardTableBarrierSetAssemblerC2Ev(ptr noundef nonnull align 8 dereferenceable(8) %0) unnamed_addr #1 comdat align 2 {
  %2 = alloca ptr, align 8
  store ptr %0, ptr %2, align 8
  %3 = load ptr, ptr %2, align 8
  call void @_ZN25ModRefBarrierSetAssemblerC2Ev(ptr noundef nonnull align 8 dereferenceable(8) %3) #5
  store ptr getelementptr inbounds inrange(-16, 144) ({ [20 x ptr] }, ptr @_ZTV28CardTableBarrierSetAssembler, i32 0, i32 0, i32 2), ptr %3, align 8
  ret void
}

; Function Attrs: mustprogress nounwind uwtable
define linkonce_odr hidden void @_ZN16ModRefBarrierSetC2EP19BarrierSetAssemblerP12BarrierSetC1P12BarrierSetC2RK15FakeRttiSupportI10BarrierSetNS7_4NameEE(ptr noundef nonnull align 8 dereferenceable(64) %0, ptr noundef %1, ptr noundef %2, ptr noundef %3, ptr noundef nonnull align 8 dereferenceable(12) %4) unnamed_addr #1 comdat align 2 {
  %6 = alloca ptr, align 8
  %7 = alloca ptr, align 8
  %8 = alloca ptr, align 8
  %9 = alloca ptr, align 8
  %10 = alloca ptr, align 8
  %11 = alloca %class.FakeRttiSupport, align 8
  store ptr %0, ptr %6, align 8
  store ptr %1, ptr %7, align 8
  store ptr %2, ptr %8, align 8
  store ptr %3, ptr %9, align 8
  store ptr %4, ptr %10, align 8
  %12 = load ptr, ptr %6, align 8
  %13 = load ptr, ptr %7, align 8
  %14 = load ptr, ptr %8, align 8
  %15 = load ptr, ptr %9, align 8
  %16 = load ptr, ptr %10, align 8
  %17 = call { i64, i32 } @_ZNK15FakeRttiSupportI10BarrierSetNS0_4NameEE7add_tagES1_(ptr noundef nonnull align 8 dereferenceable(12) %16, i32 noundef 0)
  %18 = getelementptr inbounds { i64, i32 }, ptr %11, i32 0, i32 0
  %19 = extractvalue { i64, i32 } %17, 0
  store i64 %19, ptr %18, align 8
  %20 = getelementptr inbounds { i64, i32 }, ptr %11, i32 0, i32 1
  %21 = extractvalue { i64, i32 } %17, 1
  store i32 %21, ptr %20, align 8
  call void @_ZN10BarrierSetC2EP19BarrierSetAssemblerP12BarrierSetC1P12BarrierSetC2P17BarrierSetNMethodP20BarrierSetStackChunkRK15FakeRttiSupportIS_NS_4NameEE(ptr noundef nonnull align 8 dereferenceable(64) %12, ptr noundef %13, ptr noundef %14, ptr noundef %15, ptr noundef null, ptr noundef null, ptr noundef nonnull align 8 dereferenceable(12) %11)
  store ptr getelementptr inbounds inrange(-16, 88) ({ [13 x ptr] }, ptr @_ZTV16ModRefBarrierSet, i32 0, i32 0, i32 2), ptr %12, align 8
  ret void
}

; Function Attrs: mustprogress nounwind uwtable
define linkonce_odr hidden void @_ZN15FakeRttiSupportI10BarrierSetNS0_4NameEEC2ES1_(ptr noundef nonnull align 8 dereferenceable(12) %0, i32 noundef %1) unnamed_addr #1 comdat align 2 {
  %3 = alloca ptr, align 8
  %4 = alloca i32, align 4
  store ptr %0, ptr %3, align 8
  store i32 %1, ptr %4, align 4
  %5 = load ptr, ptr %3, align 8
  %6 = getelementptr inbounds %class.FakeRttiSupport, ptr %5, i32 0, i32 0
  %7 = load i32, ptr %4, align 4
  %8 = call noundef i64 @_ZN15FakeRttiSupportI10BarrierSetNS0_4NameEE7tag_bitES1_(i32 noundef %7)
  store i64 %8, ptr %6, align 8
  %9 = getelementptr inbounds %class.FakeRttiSupport, ptr %5, i32 0, i32 1
  %10 = load i32, ptr %4, align 4
  store i32 %10, ptr %9, align 8
  ret void
}

; Function Attrs: mustprogress nounwind uwtable
define linkonce_odr hidden noundef ptr @_ZN10BarrierSet19make_barrier_set_c2I21CardTableBarrierSetC2EEP12BarrierSetC2v() #1 comdat align 2 {
  %1 = alloca i64, align 8
  %2 = alloca i8, align 1
  %3 = alloca i64, align 8
  store i64 8, ptr %3, align 8
  %4 = load i64, ptr %3, align 8
  store i64 %4, ptr %1, align 8
  store i8 5, ptr %2, align 1
  %5 = load i64, ptr %1, align 8
  %6 = load i8, ptr %2, align 1
  %7 = call noundef ptr @_Z12AllocateHeapm8MEMFLAGSN17AllocFailStrategy13AllocFailEnumE(i64 noundef %5, i8 noundef zeroext %6, i32 noundef 0) #5
  call void @llvm.memset.p0.i64(ptr align 8 %7, i8 0, i64 8, i1 false)
  call void @_ZN21CardTableBarrierSetC2C2Ev(ptr noundef nonnull align 8 dereferenceable(8) %7) #5
  ret ptr %7
}

; Function Attrs: mustprogress nounwind uwtable
define linkonce_odr hidden noundef ptr @_ZN10BarrierSet19make_barrier_set_c1I21CardTableBarrierSetC1EEP12BarrierSetC1v() #1 comdat align 2 {
  %1 = alloca i64, align 8
  %2 = alloca i8, align 1
  %3 = alloca i64, align 8
  store i64 8, ptr %3, align 8
  %4 = load i64, ptr %3, align 8
  store i64 %4, ptr %1, align 8
  store i8 5, ptr %2, align 1
  %5 = load i64, ptr %1, align 8
  %6 = load i8, ptr %2, align 1
  %7 = call noundef ptr @_Z12AllocateHeapm8MEMFLAGSN17AllocFailStrategy13AllocFailEnumE(i64 noundef %5, i8 noundef zeroext %6, i32 noundef 0) #5
  call void @llvm.memset.p0.i64(ptr align 8 %7, i8 0, i64 8, i1 false)
  call void @_ZN21CardTableBarrierSetC1C2Ev(ptr noundef nonnull align 8 dereferenceable(8) %7) #5
  ret ptr %7
}

; Function Attrs: mustprogress nounwind uwtable
define linkonce_odr hidden noundef ptr @_ZN10BarrierSet26make_barrier_set_assemblerI28CardTableBarrierSetAssemblerEEP19BarrierSetAssemblerv() #1 comdat align 2 {
  %1 = alloca i64, align 8
  %2 = alloca i8, align 1
  %3 = alloca i64, align 8
  store i64 8, ptr %3, align 8
  %4 = load i64, ptr %3, align 8
  store i64 %4, ptr %1, align 8
  store i8 5, ptr %2, align 1
  %5 = load i64, ptr %1, align 8
  %6 = load i8, ptr %2, align 1
  %7 = call noundef ptr @_Z12AllocateHeapm8MEMFLAGSN17AllocFailStrategy13AllocFailEnumE(i64 noundef %5, i8 noundef zeroext %6, i32 noundef 0) #5
  call void @llvm.memset.p0.i64(ptr align 8 %7, i8 0, i64 8, i1 false)
  call void @_ZN28CardTableBarrierSetAssemblerC2Ev(ptr noundef nonnull align 8 dereferenceable(8) %7) #5
  ret ptr %7
}

; Function Attrs: mustprogress nounwind uwtable
define hidden void @_ZN19CardTableBarrierSetC2EP9CardTable(ptr noundef nonnull align 8 dereferenceable(80) %0, ptr noundef %1) unnamed_addr #1 align 2 {
  %3 = alloca ptr, align 8
  %4 = alloca ptr, align 8
  %5 = alloca %class.FakeRttiSupport, align 8
  store ptr %0, ptr %3, align 8
  store ptr %1, ptr %4, align 8
  %6 = load ptr, ptr %3, align 8
  %7 = call noundef ptr @_ZN10BarrierSet26make_barrier_set_assemblerI28CardTableBarrierSetAssemblerEEP19BarrierSetAssemblerv()
  %8 = call noundef ptr @_ZN10BarrierSet19make_barrier_set_c1I21CardTableBarrierSetC1EEP12BarrierSetC1v()
  %9 = call noundef ptr @_ZN10BarrierSet19make_barrier_set_c2I21CardTableBarrierSetC2EEP12BarrierSetC2v()
  call void @_ZN15FakeRttiSupportI10BarrierSetNS0_4NameEEC2ES1_(ptr noundef nonnull align 8 dereferenceable(12) %5, i32 noundef 1)
  call void @_ZN16ModRefBarrierSetC2EP19BarrierSetAssemblerP12BarrierSetC1P12BarrierSetC2RK15FakeRttiSupportI10BarrierSetNS7_4NameEE(ptr noundef nonnull align 8 dereferenceable(64) %6, ptr noundef %7, ptr noundef %8, ptr noundef %9, ptr noundef nonnull align 8 dereferenceable(12) %5)
  store ptr getelementptr inbounds inrange(-16, 112) ({ [16 x ptr] }, ptr @_ZTV19CardTableBarrierSet, i32 0, i32 0, i32 2), ptr %6, align 8
  %10 = getelementptr inbounds %class.CardTableBarrierSet, ptr %6, i32 0, i32 1
  store i8 0, ptr %10, align 8
  %11 = getelementptr inbounds %class.CardTableBarrierSet, ptr %6, i32 0, i32 2
  %12 = load ptr, ptr %4, align 8
  store ptr %12, ptr %11, align 8
  ret void
}