; Function Attrs: mustprogress nounwind uwtable
define hidden void @_ZN19CardTableBarrierSetC2EP9CardTable(ptr noundef nonnull align 8 dereferenceable(80) %0, ptr noundef %1) unnamed_addr #0 align 2 {
  %3 = alloca %class.FakeRttiSupport, align 8
  %4 = tail call noundef ptr @_Z12AllocateHeapm8MEMFLAGSN17AllocFailStrategy13AllocFailEnumE(i64 noundef 8, i8 noundef zeroext 5, i32 noundef 0) #6
  store ptr getelementptr inbounds inrange(-16, 144) (i8, ptr @_ZTV28CardTableBarrierSetAssembler, i64 16), ptr %4, align 8
  %5 = tail call noundef ptr @_Z12AllocateHeapm8MEMFLAGSN17AllocFailStrategy13AllocFailEnumE(i64 noundef 8, i8 noundef zeroext 5, i32 noundef 0) #6
  store ptr getelementptr inbounds inrange(-16, 128) (i8, ptr @_ZTV21CardTableBarrierSetC1, i64 16), ptr %5, align 8
  %6 = tail call noundef ptr @_Z12AllocateHeapm8MEMFLAGSN17AllocFailStrategy13AllocFailEnumE(i64 noundef 8, i8 noundef zeroext 5, i32 noundef 0) #6
  store ptr getelementptr inbounds inrange(-16, 368) (i8, ptr @_ZTV21CardTableBarrierSetC2, i64 16), ptr %6, align 8
  call void @llvm.lifetime.start.p0(i64 16, ptr nonnull %3)
  store i64 3, ptr %3, align 8
  %7 = getelementptr inbounds i8, ptr %3, i64 8
  store i32 1, ptr %7, align 8
  call void @_ZN10BarrierSetC2EP19BarrierSetAssemblerP12BarrierSetC1P12BarrierSetC2P17BarrierSetNMethodP20BarrierSetStackChunkRK15FakeRttiSupportIS_NS_4NameEE(ptr noundef nonnull align 8 dereferenceable(64) %0, ptr noundef nonnull %4, ptr noundef nonnull %5, ptr noundef nonnull %6, ptr noundef null, ptr noundef null, ptr noundef nonnull align 8 dereferenceable(12) %3) #6
  call void @llvm.lifetime.end.p0(i64 16, ptr nonnull %3)
  store ptr getelementptr inbounds inrange(-16, 112) (i8, ptr @_ZTV19CardTableBarrierSet, i64 16), ptr %0, align 8
  %8 = getelementptr inbounds i8, ptr %0, i64 64
  store i8 0, ptr %8, align 8
  %9 = getelementptr inbounds i8, ptr %0, i64 72
  store ptr %1, ptr %9, align 8
  ret void
}